; Function Attrs: mustprogress uwtable
define internal void @_ZN11opencv_testL47gtest_Size_MatType_Mat_Transform_EvalGenerator_Ev(ptr dead_on_unwind noalias writable sret(%"class.testing::internal::ParamGenerator") align 8 %0) #4 {
  %2 = alloca %"class.testing::internal::CartesianProductHolder2.156", align 8
  call void @llvm.lifetime.start.p0(i64 60, ptr nonnull %2) #29
  %.sroa.03.0.copyload = load i64, ptr @_ZN4perfL5szVGAE, align 8
  %.sroa.02.0.copyload = load i64, ptr @_ZN4perfL6sz720pE, align 8
  %.sroa.01.0.copyload = load i64, ptr @_ZN4perfL7sz1080pE, align 8
  %.sroa.0.0.copyload = load i64, ptr @_ZN4perfL5szODDE, align 8
  store i64 %.sroa.03.0.copyload, ptr %2, align 8, !alias.scope !225
  %3 = getelementptr inbounds nuw i8, ptr %2, i64 8
  store i64 %.sroa.02.0.copyload, ptr %3, align 8, !alias.scope !225
  %4 = getelementptr inbounds nuw i8, ptr %2, i64 16
  store i64 %.sroa.01.0.copyload, ptr %4, align 8, !alias.scope !225
  %5 = getelementptr inbounds nuw i8, ptr %2, i64 24
  store i64 %.sroa.0.0.copyload, ptr %5, align 8, !alias.scope !225
  %6 = getelementptr inbounds nuw i8, ptr %2, i64 32
  store i32 16, ptr %6, align 8, !tbaa !228, !alias.scope !225
  %7 = getelementptr inbounds nuw i8, ptr %2, i64 36
  store i32 17, ptr %7, align 4, !tbaa !230, !alias.scope !225
  %8 = getelementptr inbounds nuw i8, ptr %2, i64 40
  store i32 18, ptr %8, align 8, !tbaa !231, !alias.scope !225
  %9 = getelementptr inbounds nuw i8, ptr %2, i64 44
  store i32 19, ptr %9, align 4, !tbaa !232, !alias.scope !225
  %10 = getelementptr inbounds nuw i8, ptr %2, i64 48
  store i32 20, ptr %10, align 8, !tbaa !233, !alias.scope !225
  %11 = getelementptr inbounds nuw i8, ptr %2, i64 52
  store i32 21, ptr %11, align 4, !tbaa !234, !alias.scope !225
  %12 = getelementptr inbounds nuw i8, ptr %2, i64 56
  store i32 22, ptr %12, align 8, !tbaa !235, !alias.scope !225
  call void @_ZNK7testing8internal23CartesianProductHolder2INS0_11ValueArray4IN2cv5Size_IiEES5_S5_S5_EENS0_11ValueArray7IiiiiiiiEEEcvNS0_14ParamGeneratorISt5tupleIJT_T0_EEEEIS5_N4perf7MatTypeEEEv(ptr dead_on_unwind writable sret(%"class.testing::internal::ParamGenerator") align 8 %0, ptr noundef nonnull align 4 dereferenceable(60) %2)
  call void @llvm.lifetime.end.p0(i64 60, ptr nonnull %2) #29
  ret void
}